EXPORTS
    UART0_read = _Z10UART0_readPc @1
   	destroyJVM = _Z10destroyJVMv @2
    UART0_write = _Z11UART0_writePci @3
    BDI332_break_ = _Z13BDI332_break_v @4
    BDI555_break_ = _Z13BDI555_break_v @5
    BDI555_readCR = _Z13BDI555_readCRv @6
    BDI332_dumpMem = _Z14BDI332_dumpMemiPi @7
    BDI332_fillMem = _Z14BDI332_fillMemPii @8
    BDI332_readMem = _Z14BDI332_readMemii @9
    BDI555_readFPR = _Z14BDI555_readFPRii @10
    BDI555_readGPR = _Z14BDI555_readGPRi @11
    BDI555_readMSR = _Z14BDI555_readMSRv @12
    BDI555_readMem = _Z14BDI555_readMemii @13
    BDI555_readSPR = _Z14BDI555_readSPRi @14
    BDI555_writeCR = _Z14BDI555_writeCRi @15
    BDI332_writeMem = _Z15BDI332_writeMemiii @16
    BDI555_setGpr31 = _Z15BDI555_setGpr31i @17
    BDI555_writeFPR = _Z15BDI555_writeFPRiil @18
    BDI555_writeGPR = _Z15BDI555_writeGPRii @19
    BDI555_writeMSR = _Z15BDI555_writeMSRi @20
    BDI555_writeMem = _Z15BDI555_writeMemiii @21
    BDI555_writeSPR = _Z15BDI555_writeSPRii @22
    USB_Device_open = _Z15USB_Device_openv @23
    BDI555_readFPSCR = _Z16BDI555_readFPSCRv @24
    USB_Device_close = _Z16USB_Device_closev @25
    USB_Device_reset = _Z16USB_Device_resetv @26
    getErrPipeHandle = _Z16getErrPipeHandlev @27
    getOutPipeHandle = _Z16getOutPipeHandlev @28
    BDI332_readSysReg = _Z17BDI332_readSysRegi @29
    BDI555_readMemSeq = _Z17BDI555_readMemSeqi @30
    BDI555_writeFPSCR = _Z17BDI555_writeFPSCRi @31
    BDI332_readUserReg = _Z18BDI332_readUserRegi @32
    BDI332_writeSysReg = _Z18BDI332_writeSysRegii @33
    BDI555_writeMemSeq = _Z18BDI555_writeMemSeqii @34
    checkForExceptions = _Z18checkForExceptionsv @35
    BDI332_reset_target = _Z19BDI332_reset_targetv @36
    BDI332_writeUserReg = _Z19BDI332_writeUserRegii @37
    BDI555_fastDownload = _Z19BDI555_fastDownloadPii @38
    BDI555_reset_target = _Z19BDI555_reset_targetv @39
    BDI332_nopsToLegalCmd = _Z21BDI332_nopsToLegalCmdv @40
    BDI332_isFreezeAsserted = _Z23BDI332_isFreezeAssertedv @41
    BDI555_isFreezeAsserted = _Z23BDI555_isFreezeAssertedv @42
    BDI555_stopFastDownload = _Z23BDI555_stopFastDownloadv @43
    BDI332_reset_peripherals = _Z24BDI332_reset_peripheralsv @44
    BDI555_startFastDownload = _Z24BDI555_startFastDownloadi @45
    BDI332_isTargetInDebugMode = _Z26BDI332_isTargetInDebugModev @46
    BDI555_isTargetInDebugMode = _Z26BDI555_isTargetInDebugModev @47
    BDI332_go = _Z9BDI332_gov @48
    BDI555_go = _Z9BDI555_gov @49
    createJVM = _Z9createJVMPc @50
    